target datalayout = "e-m:e-p270:32:32-p271:32:32-p272:64:64-i64:64-i128:128-f80:128-n8:16:32:64-S128"
target triple = "x86_64-pc-linux-gnu"

%struct.CMS_ContentInfo_st = type { ptr, %union.anon, %struct.CMS_CTX_st }
%union.anon = type { ptr }
%struct.CMS_CTX_st = type { ptr, ptr }

@.str.14 = private unnamed_addr constant [29 x i8] c"../openssl/test/cmsapitest.c\00", align 1
@cert = internal global ptr null, align 8
@privkey = internal global ptr null, align 8
@.str.31 = private unnamed_addr constant [12 x i8] c"Hello world\00", align 1
@.str.32 = private unnamed_addr constant [10 x i8] c"certstack\00", align 1
@.str.33 = private unnamed_addr constant [7 x i8] c"msgbio\00", align 1
@.str.34 = private unnamed_addr constant [10 x i8] c"outmsgbio\00", align 1
@.str.35 = private unnamed_addr constant [30 x i8] c"sk_X509_push(certstack, cert)\00", align 1
@.str.36 = private unnamed_addr constant [2 x i8] c"0\00", align 1
@.str.37 = private unnamed_addr constant [8 x i8] c"content\00", align 1
@.str.38 = private unnamed_addr constant [63 x i8] c"CMS_decrypt(content, privkey, cert, NULL, outmsgbio, CMS_TEXT)\00", align 1
@.str.39 = private unnamed_addr constant [114 x i8] c"contentbio = CMS_EnvelopedData_decrypt(content->d.envelopedData, NULL, privkey, cert, NULL, CMS_TEXT, NULL, NULL)\00", align 1
@.str.40 = private unnamed_addr constant [38 x i8] c"BIO_gets(outmsgbio, buf, sizeof(buf))\00", align 1
@.str.41 = private unnamed_addr constant [12 x i8] c"strlen(msg)\00", align 1
@.str.42 = private unnamed_addr constant [17 x i8] c"strcmp(buf, msg)\00", align 1
@.str.43 = private unnamed_addr constant [17 x i8] c"ERR_peek_error()\00", align 1

; Function Attrs: inlinehint nounwind uwtable
define internal ptr @ossl_check_X509_type(ptr noundef %0) #4 {
  %2 = alloca ptr, align 8
  store ptr %0, ptr %2, align 8, !tbaa !11
  %3 = load ptr, ptr %2, align 8, !tbaa !11
  ret ptr %3
}

; Function Attrs: inlinehint nounwind uwtable
define internal ptr @ossl_check_X509_sk_type(ptr noundef %0) #4 {
  %2 = alloca ptr, align 8
  store ptr %0, ptr %2, align 8, !tbaa !24
  %3 = load ptr, ptr %2, align 8, !tbaa !24
  ret ptr %3
}

; Function Attrs: nounwind uwtable
define internal i32 @test_encrypt_decrypt(ptr noundef %0) #0 {
  %2 = alloca ptr, align 8
  %3 = alloca i32, align 4
  %4 = alloca ptr, align 8
  %5 = alloca ptr, align 8
  %6 = alloca ptr, align 8
  %7 = alloca ptr, align 8
  %8 = alloca ptr, align 8
  %9 = alloca ptr, align 8
  %10 = alloca [80 x i8], align 16
  store ptr %0, ptr %2, align 8, !tbaa !22
  call void @llvm.lifetime.start.p0(i64 4, ptr %3) #5
  store i32 0, ptr %3, align 4, !tbaa !15
  call void @llvm.lifetime.start.p0(i64 8, ptr %4) #5
  %11 = call ptr @OPENSSL_sk_new_null()
  store ptr %11, ptr %4, align 8, !tbaa !24
  call void @llvm.lifetime.start.p0(i64 8, ptr %5) #5
  store ptr @.str.31, ptr %5, align 8, !tbaa !4
  call void @llvm.lifetime.start.p0(i64 8, ptr %6) #5
  %12 = load ptr, ptr %5, align 8, !tbaa !4
  %13 = load ptr, ptr %5, align 8, !tbaa !4
  %14 = call i64 @strlen(ptr noundef %13) #6
  %15 = trunc i64 %14 to i32
  %16 = call ptr @BIO_new_mem_buf(ptr noundef %12, i32 noundef %15)
  store ptr %16, ptr %6, align 8, !tbaa !9
  call void @llvm.lifetime.start.p0(i64 8, ptr %7) #5
  %17 = call ptr @BIO_s_mem()
  %18 = call ptr @BIO_new(ptr noundef %17)
  store ptr %18, ptr %7, align 8, !tbaa !9
  call void @llvm.lifetime.start.p0(i64 8, ptr %8) #5
  store ptr null, ptr %8, align 8, !tbaa !13
  call void @llvm.lifetime.start.p0(i64 8, ptr %9) #5
  store ptr null, ptr %9, align 8, !tbaa !9
  call void @llvm.lifetime.start.p0(i64 80, ptr %10) #5
  %19 = load ptr, ptr %4, align 8, !tbaa !24
  %20 = call i32 @test_ptr(ptr noundef @.str.14, i32 noundef 35, ptr noundef @.str.32, ptr noundef %19)
  %21 = icmp ne i32 %20, 0
  br i1 %21, label %22, label %30

22:                                               ; preds = %1
  %23 = load ptr, ptr %6, align 8, !tbaa !9
  %24 = call i32 @test_ptr(ptr noundef @.str.14, i32 noundef 35, ptr noundef @.str.33, ptr noundef %23)
  %25 = icmp ne i32 %24, 0
  br i1 %25, label %26, label %30

26:                                               ; preds = %22
  %27 = load ptr, ptr %7, align 8, !tbaa !9
  %28 = call i32 @test_ptr(ptr noundef @.str.14, i32 noundef 35, ptr noundef @.str.34, ptr noundef %27)
  %29 = icmp ne i32 %28, 0
  br i1 %29, label %31, label %30

30:                                               ; preds = %26, %22, %1
  br label %87

31:                                               ; preds = %26
  %32 = load ptr, ptr %4, align 8, !tbaa !24
  %33 = call ptr @ossl_check_X509_sk_type(ptr noundef %32)
  %34 = load ptr, ptr @cert, align 8, !tbaa !11
  %35 = call ptr @ossl_check_X509_type(ptr noundef %34)
  %36 = call i32 @OPENSSL_sk_push(ptr noundef %33, ptr noundef %35)
  %37 = call i32 @test_int_gt(ptr noundef @.str.14, i32 noundef 38, ptr noundef @.str.35, ptr noundef @.str.36, i32 noundef %36, i32 noundef 0)
  %38 = icmp ne i32 %37, 0
  br i1 %38, label %40, label %39

39:                                               ; preds = %31
  br label %87

40:                                               ; preds = %31
  %41 = load ptr, ptr %4, align 8, !tbaa !24
  %42 = load ptr, ptr %6, align 8, !tbaa !9
  %43 = load ptr, ptr %2, align 8, !tbaa !22
  %44 = call ptr @CMS_encrypt(ptr noundef %41, ptr noundef %42, ptr noundef %43, i32 noundef 1)
  store ptr %44, ptr %8, align 8, !tbaa !13
  %45 = load ptr, ptr %8, align 8, !tbaa !13
  %46 = call i32 @test_ptr(ptr noundef @.str.14, i32 noundef 42, ptr noundef @.str.37, ptr noundef %45)
  %47 = icmp ne i32 %46, 0
  br i1 %47, label %49, label %48

48:                                               ; preds = %40
  br label %87

49:                                               ; preds = %40
  %50 = load ptr, ptr %8, align 8, !tbaa !13
  %51 = load ptr, ptr @privkey, align 8, !tbaa !17
  %52 = load ptr, ptr @cert, align 8, !tbaa !11
  %53 = load ptr, ptr %7, align 8, !tbaa !9
  %54 = call i32 @CMS_decrypt(ptr noundef %50, ptr noundef %51, ptr noundef %52, ptr noundef null, ptr noundef %53, i32 noundef 1)
  %55 = icmp ne i32 %54, 0
  %56 = zext i1 %55 to i32
  %57 = call i32 @test_true(ptr noundef @.str.14, i32 noundef 46, ptr noundef @.str.38, i32 noundef %56)
  %58 = icmp ne i32 %57, 0
  br i1 %58, label %60, label %59

59:                                               ; preds = %49
  br label %87

60:                                               ; preds = %49
  %61 = load ptr, ptr %8, align 8, !tbaa !13
  %62 = getelementptr inbounds nuw %struct.CMS_ContentInfo_st, ptr %61, i32 0, i32 1
  %63 = load ptr, ptr %62, align 8, !tbaa !19
  %64 = load ptr, ptr @privkey, align 8, !tbaa !17
  %65 = load ptr, ptr @cert, align 8, !tbaa !11
  %66 = call ptr @CMS_EnvelopedData_decrypt(ptr noundef %63, ptr noundef null, ptr noundef %64, ptr noundef %65, ptr noundef null, i32 noundef 1, ptr noundef null, ptr noundef null)
  store ptr %66, ptr %9, align 8, !tbaa !9
  %67 = call i32 @test_ptr(ptr noundef @.str.14, i32 noundef 52, ptr noundef @.str.39, ptr noundef %66)
  %68 = icmp ne i32 %67, 0
  br i1 %68, label %70, label %69

69:                                               ; preds = %60
  br label %87

70:                                               ; preds = %60
  %71 = load ptr, ptr %7, align 8, !tbaa !9
  %72 = getelementptr inbounds [80 x i8], ptr %10, i64 0, i64 0
  %73 = call i32 @BIO_gets(ptr noundef %71, ptr noundef %72, i32 noundef 80)
  %74 = load ptr, ptr %5, align 8, !tbaa !4
  %75 = call i64 @strlen(ptr noundef %74) #6
  %76 = trunc i64 %75 to i32
  %77 = call i32 @test_int_eq(ptr noundef @.str.14, i32 noundef 56, ptr noundef @.str.40, ptr noundef @.str.41, i32 noundef %73, i32 noundef %76)
  %78 = icmp ne i32 %77, 0
  br i1 %78, label %79, label %85

79:                                               ; preds = %70
  %80 = getelementptr inbounds [80 x i8], ptr %10, i64 0, i64 0
  %81 = load ptr, ptr %5, align 8, !tbaa !4
  %82 = call i32 @strcmp(ptr noundef %80, ptr noundef %81) #6
  %83 = call i32 @test_int_eq(ptr noundef @.str.14, i32 noundef 57, ptr noundef @.str.42, ptr noundef @.str.36, i32 noundef %82, i32 noundef 0)
  %84 = icmp ne i32 %83, 0
  br i1 %84, label %86, label %85

85:                                               ; preds = %79, %70
  br label %87

86:                                               ; preds = %79
  store i32 1, ptr %3, align 4, !tbaa !15
  br label %87

87:                                               ; preds = %86, %85, %69, %59, %48, %39, %30
  %88 = load ptr, ptr %9, align 8, !tbaa !9
  %89 = call i32 @BIO_free(ptr noundef %88)
  %90 = load ptr, ptr %4, align 8, !tbaa !24
  %91 = call ptr @ossl_check_X509_sk_type(ptr noundef %90)
  call void @OPENSSL_sk_free(ptr noundef %91)
  %92 = load ptr, ptr %6, align 8, !tbaa !9
  %93 = call i32 @BIO_free(ptr noundef %92)
  %94 = load ptr, ptr %7, align 8, !tbaa !9
  %95 = call i32 @BIO_free(ptr noundef %94)
  %96 = load ptr, ptr %8, align 8, !tbaa !13
  call void @CMS_ContentInfo_free(ptr noundef %96)
  %97 = load i32, ptr %3, align 4, !tbaa !15
  %98 = icmp ne i32 %97, 0
  br i1 %98, label %99, label %104

99:                                               ; preds = %87
  %100 = call i64 @ERR_peek_error()
  %101 = trunc i64 %100 to i32
  %102 = call i32 @test_int_eq(ptr noundef @.str.14, i32 noundef 68, ptr noundef @.str.43, ptr noundef @.str.36, i32 noundef %101, i32 noundef 0)
  %103 = icmp ne i32 %102, 0
  br label %104

104:                                              ; preds = %99, %87
  %105 = phi i1 [ false, %87 ], [ %103, %99 ]
  %106 = zext i1 %105 to i32
  call void @llvm.lifetime.end.p0(i64 80, ptr %10) #5
  call void @llvm.lifetime.end.p0(i64 8, ptr %9) #5
  call void @llvm.lifetime.end.p0(i64 8, ptr %8) #5
  call void @llvm.lifetime.end.p0(i64 8, ptr %7) #5
  call void @llvm.lifetime.end.p0(i64 8, ptr %6) #5
  call void @llvm.lifetime.end.p0(i64 8, ptr %5) #5
  call void @llvm.lifetime.end.p0(i64 8, ptr %4) #5
  call void @llvm.lifetime.end.p0(i64 4, ptr %3) #5
  ret i32 %106
}