; Function Attrs: nounwind uwtable
define internal fastcc range(i32 0, 2) i32 @test_encrypt_decrypt(ptr noundef %0) unnamed_addr #1 {
  %2 = alloca [80 x i8], align 16
  %3 = tail call ptr @OPENSSL_sk_new_null() #5
  %4 = tail call ptr @BIO_new_mem_buf(ptr noundef nonnull @.str.31, i32 noundef 11) #5
  %5 = tail call ptr @BIO_s_mem() #5
  %6 = tail call ptr @BIO_new(ptr noundef %5) #5
  call void @llvm.lifetime.start.p0(i64 80, ptr nonnull %2) #5
  %7 = tail call i32 @test_ptr(ptr noundef nonnull @.str.14, i32 noundef 35, ptr noundef nonnull @.str.32, ptr noundef %3) #5
  %.not = icmp eq i32 %7, 0
  br i1 %.not, label %.critedge, label %8

8:                                                ; preds = %1
  %9 = tail call i32 @test_ptr(ptr noundef nonnull @.str.14, i32 noundef 35, ptr noundef nonnull @.str.33, ptr noundef %4) #5
  %.not23 = icmp eq i32 %9, 0
  br i1 %.not23, label %.critedge, label %10

10:                                               ; preds = %8
  %11 = tail call i32 @test_ptr(ptr noundef nonnull @.str.14, i32 noundef 35, ptr noundef nonnull @.str.34, ptr noundef %6) #5
  %.not24 = icmp eq i32 %11, 0
  br i1 %.not24, label %.critedge, label %12

12:                                               ; preds = %10
  %13 = load ptr, ptr @cert, align 8, !tbaa !9
  %14 = tail call i32 @OPENSSL_sk_push(ptr noundef %3, ptr noundef %13) #5
  %15 = tail call i32 @test_int_gt(ptr noundef nonnull @.str.14, i32 noundef 38, ptr noundef nonnull @.str.35, ptr noundef nonnull @.str.36, i32 noundef %14, i32 noundef 0) #5
  %.not25 = icmp eq i32 %15, 0
  br i1 %.not25, label %.critedge, label %16

16:                                               ; preds = %12
  %17 = tail call ptr @CMS_encrypt(ptr noundef %3, ptr noundef %4, ptr noundef %0, i32 noundef 1) #5
  %18 = tail call i32 @test_ptr(ptr noundef nonnull @.str.14, i32 noundef 42, ptr noundef nonnull @.str.37, ptr noundef %17) #5
  %.not26 = icmp eq i32 %18, 0
  br i1 %.not26, label %.critedge, label %19

19:                                               ; preds = %16
  %20 = load ptr, ptr @privkey, align 8, !tbaa !11
  %21 = load ptr, ptr @cert, align 8, !tbaa !9
  %22 = tail call i32 @CMS_decrypt(ptr noundef %17, ptr noundef %20, ptr noundef %21, ptr noundef null, ptr noundef %6, i32 noundef 1) #5
  %23 = icmp ne i32 %22, 0
  %24 = zext i1 %23 to i32
  %25 = tail call i32 @test_true(ptr noundef nonnull @.str.14, i32 noundef 46, ptr noundef nonnull @.str.38, i32 noundef %24) #5
  %.not27 = icmp eq i32 %25, 0
  br i1 %.not27, label %.critedge, label %26

26:                                               ; preds = %19
  %27 = getelementptr inbounds nuw i8, ptr %17, i64 8
  %28 = load ptr, ptr %27, align 8, !tbaa !13
  %29 = load ptr, ptr @privkey, align 8, !tbaa !11
  %30 = load ptr, ptr @cert, align 8, !tbaa !9
  %31 = tail call ptr @CMS_EnvelopedData_decrypt(ptr noundef %28, ptr noundef null, ptr noundef %29, ptr noundef %30, ptr noundef null, i32 noundef 1, ptr noundef null, ptr noundef null) #5
  %32 = tail call i32 @test_ptr(ptr noundef nonnull @.str.14, i32 noundef 52, ptr noundef nonnull @.str.39, ptr noundef %31) #5
  %.not28 = icmp eq i32 %32, 0
  br i1 %.not28, label %.critedge, label %33

33:                                               ; preds = %26
  %34 = call i32 @BIO_gets(ptr noundef %6, ptr noundef nonnull %2, i32 noundef 80) #5
  %35 = call i32 @test_int_eq(ptr noundef nonnull @.str.14, i32 noundef 56, ptr noundef nonnull @.str.40, ptr noundef nonnull @.str.41, i32 noundef %34, i32 noundef 11) #5
  %.not29 = icmp eq i32 %35, 0
  br i1 %.not29, label %.critedge, label %36

36:                                               ; preds = %33
  %37 = call i32 @strcmp(ptr noundef nonnull dereferenceable(1) %2, ptr noundef nonnull dereferenceable(12) @.str.31) #6
  %38 = call i32 @test_int_eq(ptr noundef nonnull @.str.14, i32 noundef 57, ptr noundef nonnull @.str.42, ptr noundef nonnull @.str.36, i32 noundef %37, i32 noundef 0) #5
  %.not30 = icmp eq i32 %38, 0
  %39 = call i32 @BIO_free(ptr noundef %31) #5
  call void @OPENSSL_sk_free(ptr noundef %3) #5
  %40 = call i32 @BIO_free(ptr noundef %4) #5
  %41 = call i32 @BIO_free(ptr noundef %6) #5
  call void @CMS_ContentInfo_free(ptr noundef nonnull %17) #5
  br i1 %.not30, label %51, label %42

42:                                               ; preds = %36
  %43 = call i64 @ERR_peek_error() #5
  %44 = trunc i64 %43 to i32
  %45 = call i32 @test_int_eq(ptr noundef nonnull @.str.14, i32 noundef 68, ptr noundef nonnull @.str.43, ptr noundef nonnull @.str.36, i32 noundef %44, i32 noundef 0) #5
  %46 = icmp ne i32 %45, 0
  %47 = zext i1 %46 to i32
  br label %51

.critedge:                                        ; preds = %1, %8, %10, %12, %16, %19, %26, %33
  %.021.ph = phi ptr [ null, %1 ], [ null, %8 ], [ null, %10 ], [ null, %12 ], [ %17, %16 ], [ %17, %19 ], [ %17, %26 ], [ %17, %33 ]
  %.0.ph = phi ptr [ null, %1 ], [ null, %8 ], [ null, %10 ], [ null, %12 ], [ null, %16 ], [ null, %19 ], [ %31, %26 ], [ %31, %33 ]
  %48 = call i32 @BIO_free(ptr noundef %.0.ph) #5
  call void @OPENSSL_sk_free(ptr noundef %3) #5
  %49 = call i32 @BIO_free(ptr noundef %4) #5
  %50 = call i32 @BIO_free(ptr noundef %6) #5
  call void @CMS_ContentInfo_free(ptr noundef %.021.ph) #5
  br label %51

51:                                               ; preds = %.critedge, %42, %36
  %52 = phi i32 [ 0, %36 ], [ %47, %42 ], [ 0, %.critedge ]
  call void @llvm.lifetime.end.p0(i64 80, ptr nonnull %2) #5
  ret i32 %52
}